; Function Attrs: mustprogress uwtable
define internal void @_ZL28funnel_statistics_set_filterP16_funnel_ops_id_tPKc(ptr noundef readonly %0, ptr noundef %1) #0 personality ptr @__gxx_personality_v0 {
  %3 = alloca %class.QString, align 16
  %4 = alloca %class.QString, align 16
  %.not = icmp eq ptr %0, null
  br i1 %.not, label %_ZN7QStringD2Ev.exit, label %5

5:                                                ; preds = %2
  %6 = load ptr, ptr %0, align 8
  %.not6 = icmp eq ptr %6, null
  br i1 %.not6, label %_ZN7QStringD2Ev.exit, label %7

7:                                                ; preds = %5
  call void @llvm.lifetime.start.p0(i64 24, ptr nonnull %3)
  %.not.i.i = icmp eq ptr %1, null
  br i1 %.not.i.i, label %_ZN7QStringC2EPKc.exit, label %.split.i.i

.split.i.i:                                       ; preds = %7
  %8 = tail call noundef i64 @strlen(ptr noundef nonnull dereferenceable(1) %1) #24
  br label %_ZN7QStringC2EPKc.exit

_ZN7QStringC2EPKc.exit:                           ; preds = %7, %.split.i.i
  %.sink5.i.i = phi i64 [ %8, %.split.i.i ], [ 0, %7 ]
  call void @_ZN7QString8fromUtf8E14QByteArrayView(ptr dead_on_unwind nonnull writable sret(%class.QString) align 8 %3, i64 %.sink5.i.i, ptr %1)
  %9 = load <2 x ptr>, ptr %3, align 16
  store <2 x ptr> %9, ptr %4, align 16
  %10 = getelementptr inbounds i8, ptr %4, i64 16
  %11 = getelementptr inbounds i8, ptr %3, i64 16
  %12 = load i64, ptr %11, align 16
  store i64 %12, ptr %10, align 16
  call void @llvm.lifetime.end.p0(i64 24, ptr nonnull %3)
  invoke void @_ZN16FunnelStatistics20emitSetDisplayFilterE7QString(ptr noundef nonnull align 8 dereferenceable(88) %6, ptr noundef nonnull %4)
          to label %13 unwind label %18

13:                                               ; preds = %_ZN7QStringC2EPKc.exit
  %14 = load ptr, ptr %4, align 16
  %.not.i.i.i = icmp eq ptr %14, null
  br i1 %.not.i.i.i, label %_ZN7QStringD2Ev.exit, label %_ZN17QArrayDataPointerIDsE5derefEv.exit.i.i

_ZN17QArrayDataPointerIDsE5derefEv.exit.i.i:      ; preds = %13
  %15 = atomicrmw sub ptr %14, i32 1 seq_cst, align 4
  %.not.i.i7 = icmp eq i32 %15, 1
  br i1 %.not.i.i7, label %16, label %_ZN7QStringD2Ev.exit

16:                                               ; preds = %_ZN17QArrayDataPointerIDsE5derefEv.exit.i.i
  %17 = load ptr, ptr %4, align 16
  call void @_ZN10QArrayData10deallocateEPS_xx(ptr noundef %17, i64 noundef 2, i64 noundef 8) #24
  br label %_ZN7QStringD2Ev.exit

_ZN7QStringD2Ev.exit:                             ; preds = %16, %_ZN17QArrayDataPointerIDsE5derefEv.exit.i.i, %13, %2, %5
  ret void

18:                                               ; preds = %_ZN7QStringC2EPKc.exit
  %19 = landingpad { ptr, i32 }
          cleanup
  %20 = load ptr, ptr %4, align 16
  %.not.i.i.i8 = icmp eq ptr %20, null
  br i1 %.not.i.i.i8, label %_ZN7QStringD2Ev.exit11, label %_ZN17QArrayDataPointerIDsE5derefEv.exit.i.i9

_ZN17QArrayDataPointerIDsE5derefEv.exit.i.i9:     ; preds = %18
  %21 = atomicrmw sub ptr %20, i32 1 seq_cst, align 4
  %.not.i.i10 = icmp eq i32 %21, 1
  br i1 %.not.i.i10, label %22, label %_ZN7QStringD2Ev.exit11

22:                                               ; preds = %_ZN17QArrayDataPointerIDsE5derefEv.exit.i.i9
  %23 = load ptr, ptr %4, align 16
  call void @_ZN10QArrayData10deallocateEPS_xx(ptr noundef %23, i64 noundef 2, i64 noundef 8) #24
  br label %_ZN7QStringD2Ev.exit11

_ZN7QStringD2Ev.exit11:                           ; preds = %18, %_ZN17QArrayDataPointerIDsE5derefEv.exit.i.i9, %22
  resume { ptr, i32 } %19
}